; Function Attrs: mustprogress nounwind uwtable
define internal void @_ZN4nodeL19RunAsyncCleanupHookEPv(ptr noundef %arg) #3 {
entry:
  %0 = load ptr, ptr %arg, align 8
  %request_waiting_.i = getelementptr inbounds i8, ptr %0, i64 2236
  %1 = load i32, ptr %request_waiting_.i, align 4
  %inc.i = add nsw i32 %1, 1
  store i32 %inc.i, ptr %request_waiting_.i, align 4
  %started = getelementptr inbounds i8, ptr %arg, i64 24
  store i8 1, ptr %started, align 8
  %fun = getelementptr inbounds i8, ptr %arg, i64 8
  %2 = load ptr, ptr %fun, align 8
  %arg1 = getelementptr inbounds i8, ptr %arg, i64 16
  %3 = load ptr, ptr %arg1, align 8
  tail call void %2(ptr noundef %3, ptr noundef nonnull @_ZN4nodeL22FinishAsyncCleanupHookEPv, ptr noundef nonnull %arg) #12
  ret void
}